target datalayout = "e-m:e-p270:32:32-p271:32:32-p272:64:64-i64:64-i128:128-f80:128-n8:16:32:64-S128"
target triple = "x86_64-unknown-linux-gnu"

%"class.icu_75::MaybeStackArray" = type <{ ptr, i32, i8, [40 x i8], [3 x i8] }>
%"struct.icu_75::UniProps" = type { i32, i32, [75 x i8], [25 x i32], [4 x i8], i32, i32, i32, i32, i32, i32, i32, ptr, ptr, ptr, %"class.icu_75::UnicodeString", %"class.icu_75::UnicodeString", %"class.icu_75::UnicodeString", %"class.icu_75::UnicodeString", %"class.icu_75::UnicodeSet" }
%"class.icu_75::UnicodeString" = type { %"class.icu_75::Replaceable", %"union.icu_75::UnicodeString::StackBufferOrFields" }
%"class.icu_75::Replaceable" = type { %"class.icu_75::UObject" }
%"class.icu_75::UObject" = type { ptr }
%"union.icu_75::UnicodeString::StackBufferOrFields" = type { %struct.anon.0, [32 x i8] }
%struct.anon.0 = type { i16, i32, i32, ptr }
%"class.icu_75::UnicodeSet" = type <{ %"class.icu_75::UnicodeFilter", ptr, i32, i32, i8, [7 x i8], ptr, ptr, i32, [4 x i8], ptr, i32, [4 x i8], ptr, ptr, [25 x i32], [4 x i8] }>
%"class.icu_75::UnicodeFilter" = type { %"class.icu_75::UnicodeFunctor", %"class.icu_75::UnicodeMatcher" }
%"class.icu_75::UnicodeFunctor" = type { %"class.icu_75::UObject" }
%"class.icu_75::UnicodeMatcher" = type { ptr }
%"class.icu_75::PreparsedUCD" = type { ptr, ptr, i32, i32, i32, i32, i32, ptr, ptr, [4 x i8], %"struct.icu_75::UniProps", %"struct.icu_75::UniProps", %"struct.icu_75::UniProps", %"class.icu_75::UnicodeSet", [3 x [4096 x i8]] }
%"class.icu_75::CharString" = type { %"class.icu_75::MaybeStackArray", i32, [4 x i8] }

@stderr = external global ptr, align 8
@.str.22 = private unnamed_addr constant [69 x i8] c"error in preparsed UCD: '%s' is not a valid script code on line %ld\0A\00", align 1
@.str.23 = private unnamed_addr constant [66 x i8] c"error in preparsed UCD: scx has duplicate '%s' codes on line %ld\0A\00", align 1
@.str.24 = private unnamed_addr constant [48 x i8] c"error in preparsed UCD: empty scx= on line %ld\0A\00", align 1
@_ZN6icu_7515MaybeStackArrayIcLi40EEC1Ev = weak_odr unnamed_addr alias void (ptr), ptr @_ZN6icu_7515MaybeStackArrayIcLi40EEC2Ev
@_ZN6icu_7515MaybeStackArrayIcLi40EED1Ev = weak_odr unnamed_addr alias void (ptr), ptr @_ZN6icu_7515MaybeStackArrayIcLi40EED2Ev

; Function Attrs: mustprogress nounwind uwtable
define weak_odr noundef ptr @_ZNK6icu_7515MaybeStackArrayIcLi40EE8getAliasEv(ptr noundef nonnull align 8 dereferenceable(53) %this) #0 comdat align 2 {
entry:
  %this.addr = alloca ptr, align 8
  store ptr %this, ptr %this.addr, align 8
  %this1 = load ptr, ptr %this.addr, align 8
  %ptr = getelementptr inbounds %"class.icu_75::MaybeStackArray", ptr %this1, i32 0, i32 0
  %0 = load ptr, ptr %ptr, align 8
  ret ptr %0
}

; Function Attrs: mustprogress nounwind uwtable
define weak_odr noundef nonnull align 1 dereferenceable(1) ptr @_ZN6icu_7515MaybeStackArrayIcLi40EEixEl(ptr noundef nonnull align 8 dereferenceable(53) %this, i64 noundef %i) #0 comdat align 2 {
entry:
  %this.addr = alloca ptr, align 8
  %i.addr = alloca i64, align 8
  store ptr %this, ptr %this.addr, align 8
  store i64 %i, ptr %i.addr, align 8
  %this1 = load ptr, ptr %this.addr, align 8
  %ptr = getelementptr inbounds %"class.icu_75::MaybeStackArray", ptr %this1, i32 0, i32 0
  %0 = load ptr, ptr %ptr, align 8
  %1 = load i64, ptr %i.addr, align 8
  %arrayidx = getelementptr inbounds i8, ptr %0, i64 %1
  ret ptr %arrayidx
}

; Function Attrs: mustprogress nounwind uwtable
define linkonce_odr void @_ZN6icu_7510CharStringD2Ev(ptr noundef nonnull align 8 dereferenceable(60) %this) unnamed_addr #0 comdat align 2 {
entry:
  %this.addr = alloca ptr, align 8
  store ptr %this, ptr %this.addr, align 8
  %this1 = load ptr, ptr %this.addr, align 8
  %buffer = getelementptr inbounds %"class.icu_75::CharString", ptr %this1, i32 0, i32 0
  call void @_ZN6icu_7515MaybeStackArrayIcLi40EED1Ev(ptr noundef nonnull align 8 dereferenceable(53) %buffer) #10
  ret void
}

; Function Attrs: mustprogress nounwind uwtable
define linkonce_odr noundef ptr @_ZN6icu_7510CharString4dataEv(ptr noundef nonnull align 8 dereferenceable(60) %this) #0 comdat align 2 {
entry:
  %this.addr = alloca ptr, align 8
  store ptr %this, ptr %this.addr, align 8
  %this1 = load ptr, ptr %this.addr, align 8
  %buffer = getelementptr inbounds %"class.icu_75::CharString", ptr %this1, i32 0, i32 0
  %call = call noundef ptr @_ZNK6icu_7515MaybeStackArrayIcLi40EE8getAliasEv(ptr noundef nonnull align 8 dereferenceable(53) %buffer)
  ret ptr %call
}

; Function Attrs: mustprogress nounwind uwtable
define linkonce_odr noundef nonnull align 8 dereferenceable(60) ptr @_ZN6icu_7510CharString5clearEv(ptr noundef nonnull align 8 dereferenceable(60) %this) #0 comdat align 2 {
entry:
  %this.addr = alloca ptr, align 8
  store ptr %this, ptr %this.addr, align 8
  %this1 = load ptr, ptr %this.addr, align 8
  %len = getelementptr inbounds %"class.icu_75::CharString", ptr %this1, i32 0, i32 1
  store i32 0, ptr %len, align 8
  %buffer = getelementptr inbounds %"class.icu_75::CharString", ptr %this1, i32 0, i32 0
  %call = call noundef nonnull align 1 dereferenceable(1) ptr @_ZN6icu_7515MaybeStackArrayIcLi40EEixEl(ptr noundef nonnull align 8 dereferenceable(53) %buffer, i64 noundef 0)
  store i8 0, ptr %call, align 1
  ret ptr %this1
}

; Function Attrs: mustprogress uwtable
define linkonce_odr void @_ZN6icu_7510CharStringC2Ev(ptr noundef nonnull align 8 dereferenceable(60) %this) unnamed_addr #1 comdat align 2 {
entry:
  %this.addr = alloca ptr, align 8
  store ptr %this, ptr %this.addr, align 8
  %this1 = load ptr, ptr %this.addr, align 8
  %buffer = getelementptr inbounds %"class.icu_75::CharString", ptr %this1, i32 0, i32 0
  call void @_ZN6icu_7515MaybeStackArrayIcLi40EEC1Ev(ptr noundef nonnull align 8 dereferenceable(53) %buffer)
  %len = getelementptr inbounds %"class.icu_75::CharString", ptr %this1, i32 0, i32 1
  store i32 0, ptr %len, align 8
  %buffer2 = getelementptr inbounds %"class.icu_75::CharString", ptr %this1, i32 0, i32 0
  %call = call noundef nonnull align 1 dereferenceable(1) ptr @_ZN6icu_7515MaybeStackArrayIcLi40EEixEl(ptr noundef nonnull align 8 dereferenceable(53) %buffer2, i64 noundef 0)
  store i8 0, ptr %call, align 1
  ret void
}

; Function Attrs: mustprogress nounwind uwtable
define internal noundef signext i8 @_ZL9U_FAILURE10UErrorCode(i32 noundef %code) #0 {
entry:
  %code.addr = alloca i32, align 4
  store i32 %code, ptr %code.addr, align 4
  %0 = load i32, ptr %code.addr, align 4
  %cmp = icmp sgt i32 %0, 0
  %conv = zext i1 %cmp to i8
  ret i8 %conv
}

; Function Attrs: mustprogress uwtable
define void @_ZN6icu_7512PreparsedUCD21parseScriptExtensionsEPKcRNS_10UnicodeSetER10UErrorCode(ptr noundef nonnull align 8 dereferenceable(14640) %this, ptr noundef %s, ptr noundef nonnull align 8 dereferenceable(200) %scx, ptr noundef nonnull align 4 dereferenceable(4) %errorCode) #1 align 2 personality ptr @__gxx_personality_v0 {
entry:
  %this.addr = alloca ptr, align 8
  %s.addr = alloca ptr, align 8
  %scx.addr = alloca ptr, align 8
  %errorCode.addr = alloca ptr, align 8
  %scString = alloca %"class.icu_75::CharString", align 8
  %scs = alloca ptr, align 8
  %scLimit = alloca ptr, align 8
  %exn.slot = alloca ptr, align 8
  %ehselector.slot = alloca i32, align 4
  %cleanup.dest.slot = alloca i32, align 4
  %script = alloca i32, align 4
  store ptr %this, ptr %this.addr, align 8
  store ptr %s, ptr %s.addr, align 8
  store ptr %scx, ptr %scx.addr, align 8
  store ptr %errorCode, ptr %errorCode.addr, align 8
  %this1 = load ptr, ptr %this.addr, align 8
  %0 = load ptr, ptr %errorCode.addr, align 8
  %1 = load i32, ptr %0, align 4
  %call = call noundef signext i8 @_ZL9U_FAILURE10UErrorCode(i32 noundef %1)
  %tobool = icmp ne i8 %call, 0
  br i1 %tobool, label %if.then, label %if.end

if.then:                                          ; preds = %entry
  br label %cleanup.cont

if.end:                                           ; preds = %entry
  %2 = load ptr, ptr %scx.addr, align 8
  %call2 = call noundef nonnull align 8 dereferenceable(200) ptr @_ZN6icu_7510UnicodeSet5clearEv(ptr noundef nonnull align 8 dereferenceable(200) %2)
  call void @_ZN6icu_7510CharStringC2Ev(ptr noundef nonnull align 8 dereferenceable(60) %scString)
  br label %for.cond

for.cond:                                         ; preds = %if.end40, %if.end
  %3 = load ptr, ptr %s.addr, align 8
  %call3 = call noundef ptr @strchr(ptr noundef %3, i32 noundef 32) #13
  store ptr %call3, ptr %scLimit, align 8
  %4 = load ptr, ptr %scLimit, align 8
  %cmp = icmp ne ptr %4, null
  br i1 %cmp, label %if.then4, label %if.else

if.then4:                                         ; preds = %for.cond
  %call5 = invoke noundef nonnull align 8 dereferenceable(60) ptr @_ZN6icu_7510CharString5clearEv(ptr noundef nonnull align 8 dereferenceable(60) %scString)
          to label %invoke.cont unwind label %lpad

invoke.cont:                                      ; preds = %if.then4
  %5 = load ptr, ptr %s.addr, align 8
  %6 = load ptr, ptr %scLimit, align 8
  %7 = load ptr, ptr %s.addr, align 8
  %sub.ptr.lhs.cast = ptrtoint ptr %6 to i64
  %sub.ptr.rhs.cast = ptrtoint ptr %7 to i64
  %sub.ptr.sub = sub i64 %sub.ptr.lhs.cast, %sub.ptr.rhs.cast
  %conv = trunc i64 %sub.ptr.sub to i32
  %8 = load ptr, ptr %errorCode.addr, align 8
  %call7 = invoke noundef nonnull align 8 dereferenceable(60) ptr @_ZN6icu_7510CharString6appendEPKciR10UErrorCode(ptr noundef nonnull align 8 dereferenceable(60) %call5, ptr noundef %5, i32 noundef %conv, ptr noundef nonnull align 4 dereferenceable(4) %8)
          to label %invoke.cont6 unwind label %lpad

invoke.cont6:                                     ; preds = %invoke.cont
  %call9 = invoke noundef ptr @_ZN6icu_7510CharString4dataEv(ptr noundef nonnull align 8 dereferenceable(60) %call7)
          to label %invoke.cont8 unwind label %lpad

invoke.cont8:                                     ; preds = %invoke.cont6
  store ptr %call9, ptr %scs, align 8
  %9 = load ptr, ptr %errorCode.addr, align 8
  %10 = load i32, ptr %9, align 4
  %call11 = invoke noundef signext i8 @_ZL9U_FAILURE10UErrorCode(i32 noundef %10)
          to label %invoke.cont10 unwind label %lpad

invoke.cont10:                                    ; preds = %invoke.cont8
  %tobool12 = icmp ne i8 %call11, 0
  br i1 %tobool12, label %if.then13, label %if.end14

if.then13:                                        ; preds = %invoke.cont10
  store i32 1, ptr %cleanup.dest.slot, align 4
  br label %cleanup

lpad:                                             ; preds = %if.then44, %for.end, %if.else32, %if.then27, %if.else23, %if.then19, %if.end15, %invoke.cont8, %invoke.cont6, %invoke.cont, %if.then4
  %11 = landingpad { ptr, i32 }
          cleanup
  %12 = extractvalue { ptr, i32 } %11, 0
  store ptr %12, ptr %exn.slot, align 8
  %13 = extractvalue { ptr, i32 } %11, 1
  store i32 %13, ptr %ehselector.slot, align 4
  call void @_ZN6icu_7510CharStringD2Ev(ptr noundef nonnull align 8 dereferenceable(60) %scString) #10
  br label %eh.resume

if.end14:                                         ; preds = %invoke.cont10
  br label %if.end15

if.else:                                          ; preds = %for.cond
  %14 = load ptr, ptr %s.addr, align 8
  store ptr %14, ptr %scs, align 8
  br label %if.end15

if.end15:                                         ; preds = %if.else, %if.end14
  %pnames = getelementptr inbounds %"class.icu_75::PreparsedUCD", ptr %this1, i32 0, i32 0
  %15 = load ptr, ptr %pnames, align 8
  %16 = load ptr, ptr %scs, align 8
  %vtable = load ptr, ptr %15, align 8
  %vfn = getelementptr inbounds ptr, ptr %vtable, i64 3
  %17 = load ptr, ptr %vfn, align 8
  %call17 = invoke noundef i32 %17(ptr noundef nonnull align 8 dereferenceable(8) %15, i32 noundef 4106, ptr noundef %16)
          to label %invoke.cont16 unwind label %lpad

invoke.cont16:                                    ; preds = %if.end15
  store i32 %call17, ptr %script, align 4
  %18 = load i32, ptr %script, align 4
  %cmp18 = icmp eq i32 %18, -1
  br i1 %cmp18, label %if.then19, label %if.else23

if.then19:                                        ; preds = %invoke.cont16
  %19 = load ptr, ptr @stderr, align 8
  %20 = load ptr, ptr %scs, align 8
  %lineNumber = getelementptr inbounds %"class.icu_75::PreparsedUCD", ptr %this1, i32 0, i32 5
  %21 = load i32, ptr %lineNumber, align 4
  %conv20 = sext i32 %21 to i64
  %call22 = invoke i32 (ptr, ptr, ...) @fprintf(ptr noundef %19, ptr noundef @.str.22, ptr noundef %20, i64 noundef %conv20)
          to label %invoke.cont21 unwind label %lpad

invoke.cont21:                                    ; preds = %if.then19
  %22 = load ptr, ptr %errorCode.addr, align 8
  store i32 9, ptr %22, align 4
  store i32 1, ptr %cleanup.dest.slot, align 4
  br label %cleanup

if.else23:                                        ; preds = %invoke.cont16
  %23 = load ptr, ptr %scx.addr, align 8
  %24 = load i32, ptr %script, align 4
  %call25 = invoke noundef signext i8 @_ZNK6icu_7510UnicodeSet8containsEi(ptr noundef nonnull align 8 dereferenceable(200) %23, i32 noundef %24)
          to label %invoke.cont24 unwind label %lpad

invoke.cont24:                                    ; preds = %if.else23
  %tobool26 = icmp ne i8 %call25, 0
  br i1 %tobool26, label %if.then27, label %if.else32

if.then27:                                        ; preds = %invoke.cont24
  %25 = load ptr, ptr @stderr, align 8
  %26 = load ptr, ptr %scs, align 8
  %lineNumber28 = getelementptr inbounds %"class.icu_75::PreparsedUCD", ptr %this1, i32 0, i32 5
  %27 = load i32, ptr %lineNumber28, align 4
  %conv29 = sext i32 %27 to i64
  %call31 = invoke i32 (ptr, ptr, ...) @fprintf(ptr noundef %25, ptr noundef @.str.23, ptr noundef %26, i64 noundef %conv29)
          to label %invoke.cont30 unwind label %lpad

invoke.cont30:                                    ; preds = %if.then27
  %28 = load ptr, ptr %errorCode.addr, align 8
  store i32 9, ptr %28, align 4
  store i32 1, ptr %cleanup.dest.slot, align 4
  br label %cleanup

if.else32:                                        ; preds = %invoke.cont24
  %29 = load ptr, ptr %scx.addr, align 8
  %30 = load i32, ptr %script, align 4
  %call34 = invoke noundef nonnull align 8 dereferenceable(200) ptr @_ZN6icu_7510UnicodeSet3addEi(ptr noundef nonnull align 8 dereferenceable(200) %29, i32 noundef %30)
          to label %invoke.cont33 unwind label %lpad

invoke.cont33:                                    ; preds = %if.else32
  br label %if.end35

if.end35:                                         ; preds = %invoke.cont33
  br label %if.end36

if.end36:                                         ; preds = %if.end35
  %31 = load ptr, ptr %scLimit, align 8
  %cmp37 = icmp ne ptr %31, null
  br i1 %cmp37, label %if.then38, label %if.else39

if.then38:                                        ; preds = %if.end36
  %32 = load ptr, ptr %scLimit, align 8
  %add.ptr = getelementptr inbounds i8, ptr %32, i64 1
  store ptr %add.ptr, ptr %s.addr, align 8
  br label %if.end40

if.else39:                                        ; preds = %if.end36
  br label %for.end

if.end40:                                         ; preds = %if.then38
  br label %for.cond, !llvm.loop !14

for.end:                                          ; preds = %if.else39
  %33 = load ptr, ptr %scx.addr, align 8
  %call42 = invoke noundef signext i8 @_ZNK6icu_7510UnicodeSet7isEmptyEv(ptr noundef nonnull align 8 dereferenceable(200) %33)
          to label %invoke.cont41 unwind label %lpad

invoke.cont41:                                    ; preds = %for.end
  %tobool43 = icmp ne i8 %call42, 0
  br i1 %tobool43, label %if.then44, label %if.end49

if.then44:                                        ; preds = %invoke.cont41
  %34 = load ptr, ptr @stderr, align 8
  %lineNumber45 = getelementptr inbounds %"class.icu_75::PreparsedUCD", ptr %this1, i32 0, i32 5
  %35 = load i32, ptr %lineNumber45, align 4
  %conv46 = sext i32 %35 to i64
  %call48 = invoke i32 (ptr, ptr, ...) @fprintf(ptr noundef %34, ptr noundef @.str.24, i64 noundef %conv46)
          to label %invoke.cont47 unwind label %lpad

invoke.cont47:                                    ; preds = %if.then44
  %36 = load ptr, ptr %errorCode.addr, align 8
  store i32 9, ptr %36, align 4
  br label %if.end49

if.end49:                                         ; preds = %invoke.cont47, %invoke.cont41
  store i32 0, ptr %cleanup.dest.slot, align 4
  br label %cleanup

cleanup:                                          ; preds = %if.end49, %invoke.cont30, %invoke.cont21, %if.then13
  call void @_ZN6icu_7510CharStringD2Ev(ptr noundef nonnull align 8 dereferenceable(60) %scString) #10
  %cleanup.dest = load i32, ptr %cleanup.dest.slot, align 4
  switch i32 %cleanup.dest, label %unreachable [
    i32 0, label %cleanup.cont
    i32 1, label %cleanup.cont
  ]

cleanup.cont:                                     ; preds = %cleanup, %cleanup, %if.then
  ret void

eh.resume:                                        ; preds = %lpad
  %exn = load ptr, ptr %exn.slot, align 8
  %sel = load i32, ptr %ehselector.slot, align 4
  %lpad.val = insertvalue { ptr, i32 } poison, ptr %exn, 0
  %lpad.val50 = insertvalue { ptr, i32 } %lpad.val, i32 %sel, 1
  resume { ptr, i32 } %lpad.val50

unreachable:                                      ; preds = %cleanup
  unreachable
}