; Function Attrs: mustprogress uwtable
define void @_ZN6icu_7512PreparsedUCD21parseScriptExtensionsEPKcRNS_10UnicodeSetER10UErrorCode(ptr nocapture noundef nonnull readonly align 8 dereferenceable(14640) %this, ptr noundef %s, ptr noundef nonnull align 8 dereferenceable(200) %scx, ptr noundef nonnull align 4 dereferenceable(4) %errorCode) local_unnamed_addr #1 align 2 personality ptr @__gxx_personality_v0 {
entry:
  %scString = alloca %"class.icu_75::CharString", align 8
  %0 = load i32, ptr %errorCode, align 4
  %cmp.i = icmp slt i32 %0, 1
  br i1 %cmp.i, label %if.end, label %cleanup.cont

if.end:                                           ; preds = %entry
  %call2 = tail call noundef nonnull align 8 dereferenceable(200) ptr @_ZN6icu_7510UnicodeSet5clearEv(ptr noundef nonnull align 8 dereferenceable(200) %scx)
  call void @_ZN6icu_7515MaybeStackArrayIcLi40EEC1Ev(ptr noundef nonnull align 8 dereferenceable(53) %scString)
  %len.i = getelementptr inbounds i8, ptr %scString, i64 56
  store i32 0, ptr %len.i, align 8
  %1 = load ptr, ptr %scString, align 8
  store i8 0, ptr %1, align 1
  br label %for.cond

for.cond:                                         ; preds = %if.end36, %if.end
  %s.addr.0 = phi ptr [ %s, %if.end ], [ %add.ptr, %if.end36 ]
  %call3 = call noundef ptr @strchr(ptr noundef nonnull dereferenceable(1) %s.addr.0, i32 noundef 32) #25
  %cmp.not = icmp eq ptr %call3, null
  br i1 %cmp.not, label %if.end15, label %if.then4

if.then4:                                         ; preds = %for.cond
  store i32 0, ptr %len.i, align 8
  %2 = load ptr, ptr %scString, align 8
  store i8 0, ptr %2, align 1
  %sub.ptr.lhs.cast = ptrtoint ptr %call3 to i64
  %sub.ptr.rhs.cast = ptrtoint ptr %s.addr.0 to i64
  %sub.ptr.sub = sub i64 %sub.ptr.lhs.cast, %sub.ptr.rhs.cast
  %conv = trunc i64 %sub.ptr.sub to i32
  %call7 = invoke noundef nonnull align 8 dereferenceable(60) ptr @_ZN6icu_7510CharString6appendEPKciR10UErrorCode(ptr noundef nonnull align 8 dereferenceable(60) %scString, ptr noundef %s.addr.0, i32 noundef %conv, ptr noundef nonnull align 4 dereferenceable(4) %errorCode)
          to label %invoke.cont6 unwind label %lpad.loopexit

invoke.cont6:                                     ; preds = %if.then4
  %3 = load ptr, ptr %call7, align 8
  %4 = load i32, ptr %errorCode, align 4
  %cmp.i20 = icmp slt i32 %4, 1
  br i1 %cmp.i20, label %if.end15, label %cleanup

lpad.loopexit:                                    ; preds = %if.then4, %if.end15, %if.else23, %if.else32
  %lpad.loopexit22 = landingpad { ptr, i32 }
          cleanup
  br label %lpad

lpad.loopexit.split-lp:                           ; preds = %for.end
  %lpad.loopexit.split-lp23 = landingpad { ptr, i32 }
          cleanup
  br label %lpad

lpad:                                             ; preds = %lpad.loopexit.split-lp, %lpad.loopexit
  %lpad.phi = phi { ptr, i32 } [ %lpad.loopexit22, %lpad.loopexit ], [ %lpad.loopexit.split-lp23, %lpad.loopexit.split-lp ]
  call void @_ZN6icu_7515MaybeStackArrayIcLi40EED1Ev(ptr noundef nonnull align 8 dereferenceable(53) %scString) #21
  resume { ptr, i32 } %lpad.phi

if.end15:                                         ; preds = %for.cond, %invoke.cont6
  %scs.0 = phi ptr [ %3, %invoke.cont6 ], [ %s.addr.0, %for.cond ]
  %5 = load ptr, ptr %this, align 8
  %vtable = load ptr, ptr %5, align 8
  %vfn = getelementptr inbounds i8, ptr %vtable, i64 24
  %6 = load ptr, ptr %vfn, align 8
  %call17 = invoke noundef i32 %6(ptr noundef nonnull align 8 dereferenceable(8) %5, i32 noundef 4106, ptr noundef %scs.0)
          to label %invoke.cont16 unwind label %lpad.loopexit

invoke.cont16:                                    ; preds = %if.end15
  %cmp18 = icmp eq i32 %call17, -1
  br i1 %cmp18, label %if.then19, label %if.else23

if.then19:                                        ; preds = %invoke.cont16
  %7 = load ptr, ptr @stderr, align 8
  %lineNumber = getelementptr inbounds i8, ptr %this, i64 28
  %8 = load i32, ptr %lineNumber, align 4
  %conv20 = sext i32 %8 to i64
  %call22 = call i32 (ptr, ptr, ...) @fprintf(ptr noundef %7, ptr noundef nonnull @.str.22, ptr noundef %scs.0, i64 noundef %conv20) #24
  br label %cleanup.sink.split

if.else23:                                        ; preds = %invoke.cont16
  %call25 = invoke noundef signext i8 @_ZNK6icu_7510UnicodeSet8containsEi(ptr noundef nonnull align 8 dereferenceable(200) %scx, i32 noundef %call17)
          to label %invoke.cont24 unwind label %lpad.loopexit

invoke.cont24:                                    ; preds = %if.else23
  %tobool26.not = icmp eq i8 %call25, 0
  br i1 %tobool26.not, label %if.else32, label %if.then27

if.then27:                                        ; preds = %invoke.cont24
  %9 = load ptr, ptr @stderr, align 8
  %lineNumber28 = getelementptr inbounds i8, ptr %this, i64 28
  %10 = load i32, ptr %lineNumber28, align 4
  %conv29 = sext i32 %10 to i64
  %call31 = call i32 (ptr, ptr, ...) @fprintf(ptr noundef %9, ptr noundef nonnull @.str.23, ptr noundef %scs.0, i64 noundef %conv29) #24
  br label %cleanup.sink.split

if.else32:                                        ; preds = %invoke.cont24
  %call34 = invoke noundef nonnull align 8 dereferenceable(200) ptr @_ZN6icu_7510UnicodeSet3addEi(ptr noundef nonnull align 8 dereferenceable(200) %scx, i32 noundef %call17)
          to label %if.end36 unwind label %lpad.loopexit

if.end36:                                         ; preds = %if.else32
  %add.ptr = getelementptr inbounds i8, ptr %call3, i64 1
  br i1 %cmp.not, label %for.end, label %for.cond, !llvm.loop !17

for.end:                                          ; preds = %if.end36
  %call42 = invoke noundef signext i8 @_ZNK6icu_7510UnicodeSet7isEmptyEv(ptr noundef nonnull align 8 dereferenceable(200) %scx)
          to label %invoke.cont41 unwind label %lpad.loopexit.split-lp

invoke.cont41:                                    ; preds = %for.end
  %tobool43.not = icmp eq i8 %call42, 0
  br i1 %tobool43.not, label %cleanup, label %if.then44

if.then44:                                        ; preds = %invoke.cont41
  %11 = load ptr, ptr @stderr, align 8
  %lineNumber45 = getelementptr inbounds i8, ptr %this, i64 28
  %12 = load i32, ptr %lineNumber45, align 4
  %conv46 = sext i32 %12 to i64
  %call48 = call i32 (ptr, ptr, ...) @fprintf(ptr noundef %11, ptr noundef nonnull @.str.24, i64 noundef %conv46) #24
  br label %cleanup.sink.split

cleanup.sink.split:                               ; preds = %if.then19, %if.then27, %if.then44
  store i32 9, ptr %errorCode, align 4
  br label %cleanup

cleanup:                                          ; preds = %invoke.cont6, %cleanup.sink.split, %invoke.cont41
  call void @_ZN6icu_7515MaybeStackArrayIcLi40EED1Ev(ptr noundef nonnull align 8 dereferenceable(53) %scString) #21
  br label %cleanup.cont

cleanup.cont:                                     ; preds = %entry, %cleanup
  ret void
}